target datalayout = "e-m:e-p270:32:32-p271:32:32-p272:64:64-i64:64-i128:128-f80:128-n8:16:32:64-S128"
target triple = "x86_64-pc-linux-gnu"

; Function Attrs: mustprogress nounwind uwtable
define void @_ZN5Ipopt13TripletHelper11FillValues_EiRKNS_15ExpansionMatrixEPd(i32 noundef %0, ptr noundef nonnull align 8 dereferenceable(80) %1, ptr noundef %2) #4 align 2 {
  %4 = alloca i32, align 4
  %5 = alloca ptr, align 8
  %6 = alloca ptr, align 8
  %7 = alloca i32, align 4
  store i32 %0, ptr %4, align 4, !tbaa !72
  store ptr %1, ptr %5, align 8, !tbaa !20
  store ptr %2, ptr %6, align 8, !tbaa !115
  call void @llvm.lifetime.start.p0(i64 4, ptr %7) #15
  store i32 0, ptr %7, align 4, !tbaa !72
  br label %8

8:                                                ; preds = %18, %3
  %9 = load i32, ptr %7, align 4, !tbaa !72
  %10 = load i32, ptr %4, align 4, !tbaa !72
  %11 = icmp slt i32 %9, %10
  br i1 %11, label %13, label %12

12:                                               ; preds = %8
  call void @llvm.lifetime.end.p0(i64 4, ptr %7) #15
  br label %21

13:                                               ; preds = %8
  %14 = load ptr, ptr %6, align 8, !tbaa !115
  %15 = load i32, ptr %7, align 4, !tbaa !72
  %16 = sext i32 %15 to i64
  %17 = getelementptr inbounds double, ptr %14, i64 %16
  store double 1.000000e+00, ptr %17, align 8, !tbaa !99
  br label %18

18:                                               ; preds = %13
  %19 = load i32, ptr %7, align 4, !tbaa !72
  %20 = add nsw i32 %19, 1
  store i32 %20, ptr %7, align 4, !tbaa !72
  br label %8, !llvm.loop !121

21:                                               ; preds = %12
  ret void
}